; Function Attrs: nounwind uwtable
define ptr @Cudd_zddChange(ptr noundef %0, ptr noundef %1, i32 noundef %2) local_unnamed_addr #0 {
  %4 = icmp ugt i32 %2, 2147483645
  br i1 %4, label %.loopexit, label %.preheader

.preheader:                                       ; preds = %3
  %5 = getelementptr inbounds nuw i8, ptr %0, i64 448
  %6 = getelementptr inbounds nuw i8, ptr %0, i64 40
  %7 = getelementptr inbounds nuw i8, ptr %0, i64 48
  br label %8

8:                                                ; preds = %.preheader, %cuddZddChange.exit
  store i32 0, ptr %5, align 8, !tbaa !3
  %9 = load ptr, ptr %6, align 8, !tbaa !37
  %10 = load ptr, ptr %7, align 8, !tbaa !26
  %11 = tail call ptr @cuddUniqueInterZdd(ptr noundef %0, i32 noundef %2, ptr noundef %9, ptr noundef %10) #3
  %12 = icmp eq ptr %11, null
  br i1 %12, label %cuddZddChange.exit, label %13

13:                                               ; preds = %8
  %14 = ptrtoint ptr %11 to i64
  %15 = and i64 %14, -2
  %16 = inttoptr i64 %15 to ptr
  %17 = getelementptr inbounds nuw i8, ptr %16, i64 4
  %18 = load i32, ptr %17, align 4, !tbaa !33
  %19 = add i32 %18, 1
  store i32 %19, ptr %17, align 4, !tbaa !33
  %20 = tail call ptr @cuddZddChangeAux(ptr noundef nonnull %0, ptr noundef %1, ptr noundef nonnull %11)
  %21 = icmp eq ptr %20, null
  br i1 %21, label %22, label %23

22:                                               ; preds = %13
  tail call void @Cudd_RecursiveDerefZdd(ptr noundef nonnull %0, ptr noundef nonnull %11) #3
  br label %cuddZddChange.exit

23:                                               ; preds = %13
  %24 = ptrtoint ptr %20 to i64
  %25 = and i64 %24, -2
  %26 = inttoptr i64 %25 to ptr
  %27 = getelementptr inbounds nuw i8, ptr %26, i64 4
  %28 = load i32, ptr %27, align 4, !tbaa !33
  %29 = add i32 %28, 1
  store i32 %29, ptr %27, align 4, !tbaa !33
  tail call void @Cudd_RecursiveDerefZdd(ptr noundef nonnull %0, ptr noundef nonnull %11) #3
  %30 = load i32, ptr %27, align 4, !tbaa !33
  %31 = add i32 %30, -1
  store i32 %31, ptr %27, align 4, !tbaa !33
  br label %cuddZddChange.exit

cuddZddChange.exit:                               ; preds = %8, %22, %23
  %.0.i = phi ptr [ null, %22 ], [ %20, %23 ], [ null, %8 ]
  %32 = load i32, ptr %5, align 8, !tbaa !3
  %33 = icmp eq i32 %32, 1
  br i1 %33, label %8, label %.loopexit, !llvm.loop !40

.loopexit:                                        ; preds = %cuddZddChange.exit, %3
  %.0 = phi ptr [ null, %3 ], [ %.0.i, %cuddZddChange.exit ]
  ret ptr %.0
}